target datalayout = "e-m:e-p270:32:32-p271:32:32-p272:64:64-i64:64-i128:128-f80:128-n8:16:32:64-S128"
target triple = "x86_64-pc-linux-gnu"

%struct.H5S_t = type { %struct.H5S_extent_t, %struct.H5S_select_t }
%struct.H5S_extent_t = type { %struct.H5O_shared_t, i32, i32, i64, i32, ptr, ptr }
%struct.H5O_shared_t = type { i32, ptr, i32, %union.anon }
%union.anon = type { %struct.H5O_mesg_loc_t }
%struct.H5O_mesg_loc_t = type { i32, i64 }
%struct.H5S_select_t = type { ptr, i8, [32 x i64], i64, %union.anon.0 }
%union.anon.0 = type { ptr }

@H5S_init_g = external global i8, align 1
@H5_libterm_g = external global i8, align 1
@.str = private unnamed_addr constant [102 x i8] c"generated/home/dtcxzyw/WorkSpace/Projects/compilers/llvm-opt-benchmark/bench/hdf5/hdf5/src/H5Spoint.c\00", align 1
@H5E_DATASPACE_g = external global i64, align 8
@__func__.H5S__point_serial_size = private unnamed_addr constant [23 x i8] c"H5S__point_serial_size\00", align 1
@H5E_CANTGET_g = external global i64, align 8
@.str.24 = private unnamed_addr constant [37 x i8] c"can't determine version and enc_size\00", align 1

; Function Attrs: nounwind uwtable
define internal i64 @H5S__point_serial_size(ptr noundef %0) #0 {
  %2 = alloca ptr, align 8
  %3 = alloca i32, align 4
  %4 = alloca i8, align 1
  %5 = alloca i64, align 8
  %6 = alloca i8, align 1
  store ptr %0, ptr %2, align 8, !tbaa !3
  call void @llvm.lifetime.start.p0(i64 4, ptr %3) #7
  call void @llvm.lifetime.start.p0(i64 1, ptr %4) #7
  call void @llvm.lifetime.start.p0(i64 8, ptr %5) #7
  store i64 -1, ptr %5, align 8, !tbaa !23
  call void @llvm.lifetime.start.p0(i64 1, ptr %6) #7
  store i8 0, ptr %6, align 1, !tbaa !8
  %7 = load i8, ptr @H5S_init_g, align 1, !tbaa !8, !range !12, !noundef !13
  %8 = trunc i8 %7 to i1
  br i1 %8, label %13, label %9

9:                                                ; preds = %1
  %10 = load i8, ptr @H5_libterm_g, align 1, !tbaa !8, !range !12, !noundef !13
  %11 = trunc i8 %10 to i1
  %12 = xor i1 %11, true
  br label %13

13:                                               ; preds = %9, %1
  %14 = phi i1 [ true, %1 ], [ %12, %9 ]
  %15 = xor i1 %14, true
  %16 = xor i1 %15, true
  %17 = zext i1 %16 to i32
  %18 = sext i32 %17 to i64
  %19 = call i64 @llvm.expect.i64(i64 %18, i64 1)
  %20 = icmp ne i64 %19, 0
  br i1 %20, label %21, label %70

21:                                               ; preds = %13
  %22 = load ptr, ptr %2, align 8, !tbaa !3
  %23 = call i32 @H5S__point_get_version_enc_size(ptr noundef %22, ptr noundef %3, ptr noundef %4)
  %24 = icmp slt i32 %23, 0
  br i1 %24, label %25, label %44

25:                                               ; preds = %21
  br label %26

26:                                               ; preds = %25
  br label %27

27:                                               ; preds = %26
  br label %28

28:                                               ; preds = %27
  %29 = load i64, ptr @H5E_DATASPACE_g, align 8, !tbaa !23
  %30 = load i64, ptr @H5E_CANTGET_g, align 8, !tbaa !23
  %31 = call i32 (ptr, ptr, i32, i64, i64, ptr, ...) @H5E_printf_stack(ptr noundef @.str, ptr noundef @__func__.H5S__point_serial_size, i32 noundef 1171, i64 noundef %29, i64 noundef %30, ptr noundef @.str.24)
  br label %32

32:                                               ; preds = %28
  br label %33

33:                                               ; preds = %32
  store i8 1, ptr %6, align 1, !tbaa !8
  %34 = load i8, ptr %6, align 1, !tbaa !8, !range !12, !noundef !13
  %35 = trunc i8 %34 to i1
  %36 = zext i1 %35 to i8
  store i8 %36, ptr %6, align 1, !tbaa !8
  br label %37

37:                                               ; preds = %33
  br label %38

38:                                               ; preds = %37
  br label %39

39:                                               ; preds = %38
  store i64 -1, ptr %5, align 8, !tbaa !23
  br label %69

40:                                               ; No predecessors!
  br label %41

41:                                               ; preds = %40
  br label %42

42:                                               ; preds = %41
  br label %43

43:                                               ; preds = %42
  br label %44

44:                                               ; preds = %43, %21
  %45 = load i32, ptr %3, align 4, !tbaa !10
  %46 = icmp uge i32 %45, 2
  br i1 %46, label %47, label %48

47:                                               ; preds = %44
  store i64 13, ptr %5, align 8, !tbaa !23
  br label %49

48:                                               ; preds = %44
  store i64 20, ptr %5, align 8, !tbaa !23
  br label %49

49:                                               ; preds = %48, %47
  %50 = load i8, ptr %4, align 1, !tbaa !14
  %51 = zext i8 %50 to i64
  %52 = load i64, ptr %5, align 8, !tbaa !23
  %53 = add nsw i64 %52, %51
  store i64 %53, ptr %5, align 8, !tbaa !23
  %54 = load i8, ptr %4, align 1, !tbaa !14
  %55 = zext i8 %54 to i32
  %56 = load ptr, ptr %2, align 8, !tbaa !3
  %57 = getelementptr inbounds nuw %struct.H5S_t, ptr %56, i32 0, i32 0
  %58 = getelementptr inbounds nuw %struct.H5S_extent_t, ptr %57, i32 0, i32 4
  %59 = load i32, ptr %58, align 8, !tbaa !15
  %60 = mul i32 %55, %59
  %61 = zext i32 %60 to i64
  %62 = load ptr, ptr %2, align 8, !tbaa !3
  %63 = getelementptr inbounds nuw %struct.H5S_t, ptr %62, i32 0, i32 1
  %64 = getelementptr inbounds nuw %struct.H5S_select_t, ptr %63, i32 0, i32 3
  %65 = load i64, ptr %64, align 8, !tbaa !24
  %66 = mul i64 %61, %65
  %67 = load i64, ptr %5, align 8, !tbaa !23
  %68 = add nsw i64 %67, %66
  store i64 %68, ptr %5, align 8, !tbaa !23
  br label %69

69:                                               ; preds = %49, %39
  br label %70

70:                                               ; preds = %69, %13
  %71 = load i64, ptr %5, align 8, !tbaa !23
  call void @llvm.lifetime.end.p0(i64 1, ptr %6) #7
  call void @llvm.lifetime.end.p0(i64 8, ptr %5) #7
  call void @llvm.lifetime.end.p0(i64 1, ptr %4) #7
  call void @llvm.lifetime.end.p0(i64 4, ptr %3) #7
  ret i64 %71
}