; Function Attrs: nounwind uwtable
define internal range(i64 -9223372036854775795, -9223372036854775808) i64 @H5S__point_serial_size(ptr noundef readonly captures(none) %0) #0 {
  %2 = alloca i32, align 4
  %3 = alloca i8, align 1
  call void @llvm.lifetime.start.p0(i64 4, ptr nonnull %2) #15
  call void @llvm.lifetime.start.p0(i64 1, ptr nonnull %3) #15
  %4 = load i8, ptr @H5S_init_g, align 1, !tbaa !3, !range !7, !noundef !8
  %5 = trunc nuw i8 %4 to i1
  %6 = load i8, ptr @H5_libterm_g, align 1, !range !7
  %7 = trunc nuw i8 %6 to i1
  %8 = xor i1 %7, true
  %9 = select i1 %5, i1 true, i1 %8
  br i1 %9, label %10, label %32, !prof !9

10:                                               ; preds = %1
  %11 = call fastcc i32 @H5S__point_get_version_enc_size(ptr noundef %0, ptr noundef %2, ptr noundef %3)
  %12 = icmp slt i32 %11, 0
  br i1 %12, label %13, label %17

13:                                               ; preds = %10
  %14 = load i64, ptr @H5E_DATASPACE_g, align 8, !tbaa !21
  %15 = load i64, ptr @H5E_CANTGET_g, align 8, !tbaa !21
  %16 = tail call i32 (ptr, ptr, i32, i64, i64, ptr, ...) @H5E_printf_stack(ptr noundef nonnull @.str, ptr noundef nonnull @__func__.H5S__point_serial_size, i32 noundef 1171, i64 noundef %14, i64 noundef %15, ptr noundef nonnull @.str.24) #15
  br label %32

17:                                               ; preds = %10
  %18 = load i32, ptr %2, align 4, !tbaa !30
  %19 = icmp ugt i32 %18, 1
  %. = select i1 %19, i64 13, i64 20
  %20 = load i8, ptr %3, align 1, !tbaa !10
  %21 = zext i8 %20 to i64
  %22 = add nuw nsw i64 %., %21
  %23 = zext i8 %20 to i32
  %24 = getelementptr inbounds nuw i8, ptr %0, i64 56
  %25 = load i32, ptr %24, align 8, !tbaa !11
  %26 = mul i32 %25, %23
  %27 = zext i32 %26 to i64
  %28 = getelementptr inbounds nuw i8, ptr %0, i64 352
  %29 = load i64, ptr %28, align 8, !tbaa !31
  %30 = mul i64 %29, %27
  %31 = add nsw i64 %22, %30
  br label %32

32:                                               ; preds = %13, %17, %1
  %.0 = phi i64 [ -1, %13 ], [ %31, %17 ], [ -1, %1 ]
  call void @llvm.lifetime.end.p0(i64 1, ptr nonnull %3) #15
  call void @llvm.lifetime.end.p0(i64 4, ptr nonnull %2) #15
  ret i64 %.0
}